Certificate:
    Data:
        Version: 3 (0x2)
        Serial Number: 1 (0x1)
        Signature Algorithm: sha256WithRSAEncryption
        Issuer: C=CN, ST=BeiJing, L=HaiDing, O=ZGC_CA, OU=ca_center, CN=ca/emailAddress=ca@zgc.com
        Validity
            Not Before: Apr 17 07:42:17 2022 GMT
            Not After : Apr 17 07:42:17 2023 GMT
        Subject: C=CN, ST=BeiJing, O=ZGC_CA, OU=ca_client, CN=client/emailAddress=client@zgc.com
        Subject Public Key Info:
            Public Key Algorithm: rsaEncryption
                RSA Public-Key: (4096 bit)
                Modulus:
                    00:ba:a1:39:b0:4d:0c:2b:73:58:43:e9:f2:26:cc:
                    54:e7:a9:b9:1c:6c:88:5d:b6:a1:f6:07:d2:9e:b8:
                    a3:ec:91:72:86:bc:7f:ff:19:59:62:5d:ea:3f:72:
                    0b:35:09:1e:38:04:38:b6:b2:ce:23:0f:55:10:39:
                    5f:34:06:c2:7b:e2:01:fc:ba:94:7f:bb:0a:53:f5:
                    4e:ad:59:00:9a:eb:84:f6:d9:88:60:2e:83:91:43:
                    0e:88:43:8a:78:6b:d6:a0:43:13:cd:31:7c:da:a6:
                    09:ac:3a:1f:98:70:bd:39:6e:25:47:bc:31:5f:32:
                    07:2f:36:af:2c:d1:16:20:46:14:e7:d9:15:79:09:
                    9f:e7:43:38:5f:a9:ab:6a:26:c4:48:30:65:3b:63:
                    40:ca:06:92:39:0f:bd:9c:19:62:ab:62:0c:2b:f1:
                    4e:2f:5a:90:8a:f7:b5:6b:93:12:d9:42:a2:a6:1e:
                    00:1b:85:a0:f3:ec:cd:84:61:a8:cb:5d:41:53:d2:
                    c5:85:f1:dd:02:a6:a9:48:ca:78:6a:53:2b:85:5a:
                    78:0a:79:25:80:ca:22:de:6d:8c:9a:13:68:7b:eb:
                    87:73:f8:4d:3a:0b:c3:08:09:ca:ed:e5:62:ed:7f:
                    aa:98:41:69:c6:01:50:19:1f:f2:a8:5f:48:79:43:
                    e2:c0:29:f1:3c:06:ad:27:e1:aa:a9:e2:f9:c0:06:
                    3c:12:36:59:e7:20:39:ac:d3:bb:6f:40:92:c2:6f:
                    6d:21:e7:85:70:58:f1:22:ec:a0:0e:3b:b7:b5:d0:
                    ab:ea:12:70:4e:64:55:15:7c:cf:2f:57:79:33:0a:
                    89:01:08:08:af:e8:4b:16:a4:71:4b:c5:4d:bf:38:
                    22:ac:8e:8c:56:b9:23:15:e8:76:e4:3b:2f:d9:4c:
                    2f:ec:7b:ad:ff:a7:86:d9:ef:ab:98:22:a5:39:5c:
                    c5:1b:d7:2e:9a:da:5f:52:bb:5d:54:25:d1:31:3d:
                    c9:42:4d:b8:aa:b4:a2:92:05:9b:72:2a:a4:29:ed:
                    95:e3:ba:47:98:59:df:79:4f:8f:e7:f2:83:7e:a5:
                    ef:53:88:2b:86:e6:e4:dd:15:cd:b3:07:44:3e:3d:
                    a0:44:78:1c:44:92:ba:38:1c:a3:81:87:5b:3b:ed:
                    39:94:05:0a:bf:37:a2:b6:98:a9:43:14:e4:fb:d2:
                    46:65:7f:8a:fb:58:e5:f9:19:89:7e:1b:6b:76:9b:
                    9f:dd:bd:fd:b7:87:ee:81:6c:58:9b:ca:44:10:e7:
                    b5:0c:15:7b:f6:96:c4:5f:c3:ac:f1:3b:d7:bf:85:
                    7f:cb:4e:2d:78:21:f4:0f:3d:79:18:cc:06:9c:0f:
                    4b:e1:f1
                Exponent: 65537 (0x10001)
        X509v3 extensions:
            X509v3 Basic Constraints: 
                CA:FALSE
            Netscape Comment: 
                OpenSSL Generated Certificate
            X509v3 Subject Key Identifier: 
                FF:63:45:02:79:6C:1E:24:20:A2:BF:76:F9:F1:24:28:2F:CA:75:7B
            X509v3 Authority Key Identifier: 
                keyid:84:4E:B8:C7:E3:8F:FE:B6:54:E7:21:19:11:11:4E:00:F6:A2:90:16

    Signature Algorithm: sha256WithRSAEncryption
         92:0f:f7:d1:c6:8c:1b:ad:aa:3b:a9:db:40:0f:e6:ac:af:1f:
         5b:1a:13:90:eb:c4:f6:c7:d4:e9:79:fc:2f:53:85:da:5c:ab:
         65:fe:cf:22:a1:04:3a:b3:e6:7a:2c:df:98:72:e3:cf:e1:89:
         e2:29:d5:c5:75:9b:61:e8:cc:1d:5b:1e:42:ee:9c:83:33:41:
         65:e8:4b:6e:1f:0d:79:5f:3f:3e:51:2c:8f:58:45:22:33:ff:
         78:5c:5b:47:f6:f6:ca:5e:ff:38:93:78:68:88:42:40:06:c8:
         1d:53:b7:f1:a0:cd:0e:75:9b:89:f8:ac:84:a1:7f:37:15:da:
         c1:b5:d4:9c:c9:1f:ae:64:86:75:aa:11:73:fa:40:52:52:4d:
         ed:14:fc:3e:5b:aa:73:dc:04:a2:07:7f:ef:3d:af:14:cd:04:
         a0:a4:8e:8c:9e:03:87:c7:6c:b7:f7:1c:56:28:ac:bb:3e:0e:
         76:78:5f:b1:e5:a0:08:b8:a0:a7:c2:97:7a:cb:18:30:8b:7c:
         80:c2:a5:9d:1d:73:df:1a:f8:4b:f4:a1:82:8b:46:ba:68:c8:
         46:2f:62:a0:f3:7a:81:d5:ae:f1:6c:f4:c6:fd:aa:5b:83:1a:
         90:c3:bc:3b:a3:5b:ec:a1:dd:2f:70:15:e1:3d:7a:f5:28:98:
         cd:a3:b6:d9
-----BEGIN CERTIFICATE-----
MIIE6DCCA9CgAwIBAgIBATANBgkqhkiG9w0BAQsFADB+MQswCQYDVQQGEwJDTjEQ
MA4GA1UECAwHQmVpSmluZzEQMA4GA1UEBwwHSGFpRGluZzEPMA0GA1UECgwGWkdD
X0NBMRIwEAYDVQQLDAljYV9jZW50ZXIxCzAJBgNVBAMMAmNhMRkwFwYJKoZIhvcN
AQkBFgpjYUB6Z2MuY29tMB4XDTIyMDQxNzA3NDIxN1oXDTIzMDQxNzA3NDIxN1ow
dDELMAkGA1UEBhMCQ04xEDAOBgNVBAgMB0JlaUppbmcxDzANBgNVBAoMBlpHQ19D
QTESMBAGA1UECwwJY2FfY2xpZW50MQ8wDQYDVQQDDAZjbGllbnQxHTAbBgkqhkiG
9w0BCQEWDmNsaWVudEB6Z2MuY29tMIICIjANBgkqhkiG9w0BAQEFAAOCAg8AMIIC
CgKCAgEAuqE5sE0MK3NYQ+nyJsxU56m5HGyIXbah9gfSnrij7JFyhrx//xlZYl3q
P3ILNQkeOAQ4trLOIw9VEDlfNAbCe+IB/LqUf7sKU/VOrVkAmuuE9tmIYC6DkUMO
iEOKeGvWoEMTzTF82qYJrDofmHC9OW4lR7wxXzIHLzavLNEWIEYU59kVeQmf50M4
X6mraibESDBlO2NAygaSOQ+9nBliq2IMK/FOL1qQive1a5MS2UKiph4AG4Wg8+zN
hGGoy11BU9LFhfHdAqapSMp4alMrhVp4CnklgMoi3m2MmhNoe+uHc/hNOgvDCAnK
7eVi7X+qmEFpxgFQGR/yqF9IeUPiwCnxPAatJ+GqqeL5wAY8EjZZ5yA5rNO7b0CS
wm9tIeeFcFjxIuygDju3tdCr6hJwTmRVFXzPL1d5MwqJAQgIr+hLFqRxS8VNvzgi
rI6MVrkjFeh25Dsv2Uwv7Hut/6eG2e+rmCKlOVzFG9cumtpfUrtdVCXRMT3JQk24
qrSikgWbciqkKe2V47pHmFnfeU+P5/KDfqXvU4grhubk3RXNswdEPj2gRHgcRJK6
OByjgYdbO+05lAUKvzeitpipQxTk+9JGZX+K+1jl+RmJfhtrdpuf3b39t4fugWxY
m8pEEOe1DBV79pbEX8Os8TvXv4V/y04teCH0Dz15GMwGnA9L4fECAwEAAaN7MHkw
CQYDVR0TBAIwADAsBglghkgBhvhCAQ0EHxYdT3BlblNTTCBHZW5lcmF0ZWQgQ2Vy
dGlmaWNhdGUwHQYDVR0OBBYEFP9jRQJ5bB4kIKK/dvnxJCgvynV7MB8GA1UdIwQY
MBaAFIROuMfjj/62VOchGRERTgD2opAWMA0GCSqGSIb3DQEBCwUAA4IBAQCSD/fR
xowbrao7qdtAD+asrx9bGhOQ68T2x9TpefwvU4XaXKtl/s8ioQQ6s+Z6LN+YcuPP
4YniKdXFdZth6MwdWx5C7pyDM0Fl6EtuHw15Xz8+USyPWEUiM/94XFtH9vbKXv84
k3hoiEJABsgdU7fxoM0OdZuJ+KyEoX83FdrBtdScyR+uZIZ1qhFz+kBSUk3tFPw+
W6pz3ASiB3/vPa8UzQSgpI6MngOHx2y39xxWKKy7Pg52eF+x5aAIuKCnwpd6yxgw
i3yAwqWdHXPfGvhL9KGCi0a6aMhGL2Kg83qB1a7xbPTG/apbgxqQw7w7o1vsod0v
cBXhPXr1KJjNo7bZ
-----END CERTIFICATE-----
