Certificate:
    Data:
        Version: 3 (0x2)
        Serial Number: 2 (0x2)
        Signature Algorithm: sha256WithRSAEncryption
        Issuer: C=CN, ST=AnHui, L=BB, O=AHSTU, OU=NET, CN=ca/emailAddress=ca@ca.com
        Validity
            Not Before: May 17 15:13:21 2022 GMT
            Not After : May 17 15:13:21 2023 GMT
        Subject: C=CN, ST=AnHui, O=AHSTU, OU=NET, CN=client/emailAddress=client@ca.com
        Subject Public Key Info:
            Public Key Algorithm: rsaEncryption
                RSA Public-Key: (4096 bit)
                Modulus:
                    00:c2:ba:24:9a:8c:73:0c:bc:de:c8:fa:3c:12:13:
                    95:93:69:e3:6f:67:d3:60:7e:65:0b:14:f0:65:df:
                    c1:bf:6a:6e:7b:e3:9e:a4:6a:e9:31:2c:85:c1:9b:
                    e6:ff:eb:e1:62:7e:ab:63:76:ab:c4:91:0e:23:2e:
                    88:d4:5e:3a:eb:3e:a1:53:fd:ac:d5:3c:54:ce:fa:
                    44:a8:fc:06:07:28:75:0f:fc:84:0b:ac:08:2d:0e:
                    6f:81:4c:87:ee:05:c4:79:80:80:0f:af:89:f7:01:
                    d6:c2:18:f1:45:ef:00:87:33:d0:bd:a7:dd:e8:3b:
                    6f:d1:05:bf:39:48:3f:e8:c3:e8:ab:80:d3:cd:bd:
                    5e:e4:c7:8b:9d:03:72:f3:0b:9f:53:bb:23:d0:d9:
                    17:1f:5c:3a:9a:04:3e:6e:91:0d:16:ee:f9:02:4c:
                    8b:a9:ab:bd:e0:e1:37:a1:bf:35:95:9b:2f:40:ba:
                    a4:da:00:e6:1d:6e:c7:3c:47:69:f8:79:50:00:32:
                    4e:34:91:c1:41:00:df:01:4a:98:1e:4e:f2:86:eb:
                    ed:51:5e:75:f9:54:ad:53:7e:22:e0:b5:cb:77:2f:
                    a0:b7:1f:2e:65:17:79:65:02:90:a7:cc:c7:8a:bc:
                    71:60:9b:d5:52:03:bb:f0:b4:45:42:5e:3a:60:c5:
                    a4:d7:a8:7e:05:f0:9e:24:5e:64:53:bf:58:8e:6b:
                    3e:be:fe:ef:af:e1:ed:39:5a:93:1c:00:37:9a:92:
                    da:a2:5f:7f:16:7b:59:72:2f:61:a6:5a:67:35:34:
                    00:ef:75:60:94:e2:4f:81:61:e6:c5:f5:84:78:fa:
                    25:a1:55:18:b5:9f:b3:64:49:4b:c1:02:e1:0e:03:
                    d1:ad:a1:06:94:8e:58:cc:07:b9:d5:ec:84:4b:bb:
                    0a:f4:a9:62:69:17:44:95:36:b3:3b:80:62:bb:8e:
                    cb:37:41:f7:e2:15:77:1a:f4:e4:bf:7a:c3:d2:0b:
                    18:f6:73:a1:cf:98:6a:f5:09:d1:e2:f6:39:73:1e:
                    a6:0c:13:96:11:67:b2:b9:20:a9:5b:fc:da:7b:f7:
                    21:77:ed:c6:83:71:6d:5d:5a:d2:72:76:3c:7c:f0:
                    61:c1:5e:5e:28:89:11:0f:84:3a:5a:f3:7a:3b:dc:
                    cb:12:ab:39:dc:0d:ce:f0:48:b0:9c:4c:9c:16:92:
                    ab:23:78:44:06:be:31:ae:70:e0:68:b5:26:30:b8:
                    3b:47:73:38:40:1e:3f:e0:5f:1d:2b:bc:01:d9:3b:
                    a2:6f:cb:48:84:31:b7:c2:fe:59:a5:8d:e8:03:8e:
                    55:86:9c:46:7e:25:bd:1c:e9:ed:de:cb:12:3e:3c:
                    08:ba:eb
                Exponent: 65537 (0x10001)
        X509v3 extensions:
            X509v3 Basic Constraints: 
                CA:FALSE
            Netscape Comment: 
                OpenSSL Generated Certificate
            X509v3 Subject Key Identifier: 
                E4:E7:03:72:0B:2B:B3:B7:4D:DC:5C:65:3F:56:A3:3D:A8:8B:26:F3
            X509v3 Authority Key Identifier: 
                keyid:C3:03:D9:9F:37:78:B7:C5:1A:1F:3F:84:FE:C8:9A:30:F7:92:07:39

    Signature Algorithm: sha256WithRSAEncryption
         c1:3e:74:c1:31:60:ac:51:d9:d8:30:d3:ed:55:80:4b:fa:3f:
         91:e8:1e:f4:f2:7e:64:c9:fc:3f:84:5d:3e:3f:71:06:fb:7d:
         e4:e9:5c:8f:f5:b7:7b:17:9e:49:89:d7:81:88:1e:da:d9:20:
         f5:06:78:94:cc:20:e8:cd:4b:1e:78:04:21:ae:53:0f:e2:60:
         8a:b5:65:5a:0d:36:21:d8:5f:9f:34:80:c3:79:89:f9:56:86:
         61:76:e8:f7:f0:a1:2b:a2:4d:20:08:d5:87:7b:43:dd:8c:53:
         8d:25:b8:14:f3:07:23:a0:32:c4:8c:89:89:56:6a:c0:bb:88:
         4a:4d:eb:10:ad:6a:9c:cf:13:84:7a:68:37:e8:d3:78:bc:d2:
         06:67:b7:e7:92:8f:22:97:9a:c4:8d:67:3b:af:58:24:b0:25:
         b0:75:b1:9a:bf:88:9f:97:1d:4c:a7:ac:c3:f5:1b:08:6e:5f:
         46:c4:04:ea:fb:09:bb:2d:59:9c:95:50:4e:e6:2a:8a:40:53:
         dc:12:7d:20:5b:ba:f7:82:6e:e5:4e:e1:6c:b2:30:42:59:2b:
         c7:17:6c:30:10:f7:dd:59:42:63:92:1c:9f:a0:d7:7a:05:06:
         d5:2e:43:c4:07:94:3e:b1:d3:96:b6:71:cb:fd:8a:ee:24:98:
         56:b5:3b:41
-----BEGIN CERTIFICATE-----
MIIEzzCCA7egAwIBAgIBAjANBgkqhkiG9w0BAQsFADBvMQswCQYDVQQGEwJDTjEO
MAwGA1UECAwFQW5IdWkxCzAJBgNVBAcMAkJCMQ4wDAYDVQQKDAVBSFNUVTEMMAoG
A1UECwwDTkVUMQswCQYDVQQDDAJjYTEYMBYGCSqGSIb3DQEJARYJY2FAY2EuY29t
MB4XDTIyMDUxNzE1MTMyMVoXDTIzMDUxNzE1MTMyMVowajELMAkGA1UEBhMCQ04x
DjAMBgNVBAgMBUFuSHVpMQ4wDAYDVQQKDAVBSFNUVTEMMAoGA1UECwwDTkVUMQ8w
DQYDVQQDDAZjbGllbnQxHDAaBgkqhkiG9w0BCQEWDWNsaWVudEBjYS5jb20wggIi
MA0GCSqGSIb3DQEBAQUAA4ICDwAwggIKAoICAQDCuiSajHMMvN7I+jwSE5WTaeNv
Z9NgfmULFPBl38G/am57456kaukxLIXBm+b/6+FifqtjdqvEkQ4jLojUXjrrPqFT
/azVPFTO+kSo/AYHKHUP/IQLrAgtDm+BTIfuBcR5gIAPr4n3AdbCGPFF7wCHM9C9
p93oO2/RBb85SD/ow+irgNPNvV7kx4udA3LzC59TuyPQ2RcfXDqaBD5ukQ0W7vkC
TIupq73g4TehvzWVmy9AuqTaAOYdbsc8R2n4eVAAMk40kcFBAN8BSpgeTvKG6+1R
XnX5VK1TfiLgtct3L6C3Hy5lF3llApCnzMeKvHFgm9VSA7vwtEVCXjpgxaTXqH4F
8J4kXmRTv1iOaz6+/u+v4e05WpMcADeaktqiX38We1lyL2GmWmc1NADvdWCU4k+B
YebF9YR4+iWhVRi1n7NkSUvBAuEOA9GtoQaUjljMB7nV7IRLuwr0qWJpF0SVNrM7
gGK7jss3QffiFXca9OS/esPSCxj2c6HPmGr1CdHi9jlzHqYME5YRZ7K5IKlb/Np7
9yF37caDcW1dWtJydjx88GHBXl4oiREPhDpa83o73MsSqzncDc7wSLCcTJwWkqsj
eEQGvjGucOBotSYwuDtHczhAHj/gXx0rvAHZO6Jvy0iEMbfC/lmljegDjlWGnEZ+
Jb0c6e3eyxI+PAi66wIDAQABo3sweTAJBgNVHRMEAjAAMCwGCWCGSAGG+EIBDQQf
Fh1PcGVuU1NMIEdlbmVyYXRlZCBDZXJ0aWZpY2F0ZTAdBgNVHQ4EFgQU5OcDcgsr
s7dN3FxlP1ajPaiLJvMwHwYDVR0jBBgwFoAUwwPZnzd4t8UaHz+E/siaMPeSBzkw
DQYJKoZIhvcNAQELBQADggEBAME+dMExYKxR2dgw0+1VgEv6P5HoHvTyfmTJ/D+E
XT4/cQb7feTpXI/1t3sXnkmJ14GIHtrZIPUGeJTMIOjNSx54BCGuUw/iYIq1ZVoN
NiHYX580gMN5iflWhmF26PfwoSuiTSAI1Yd7Q92MU40luBTzByOgMsSMiYlWasC7
iEpN6xCtapzPE4R6aDfo03i80gZnt+eSjyKXmsSNZzuvWCSwJbB1sZq/iJ+XHUyn
rMP1GwhuX0bEBOr7CbstWZyVUE7mKopAU9wSfSBbuveCbuVO4WyyMEJZK8cXbDAQ
991ZQmOSHJ+g13oFBtUuQ8QHlD6x05a2ccv9iu4kmFa1O0E=
-----END CERTIFICATE-----
