Certificate:
    Data:
        Version: 3 (0x2)
        Serial Number: 0 (0x0)
        Signature Algorithm: sha256WithRSAEncryption
        Issuer: C=CN, ST=BeiJing, L=HaiDing, O=ZGC_CA, OU=ca_center, CN=ca/emailAddress=ca@zgc.com
        Validity
            Not Before: Apr 17 07:41:43 2022 GMT
            Not After : Apr 17 07:41:43 2023 GMT
        Subject: C=CN, ST=BeiJing, O=ZGC_CA, OU=ca_server, CN=server/emailAddress=server@zgc.com
        Subject Public Key Info:
            Public Key Algorithm: rsaEncryption
                RSA Public-Key: (4096 bit)
                Modulus:
                    00:ba:d1:78:cf:66:9a:de:1e:b2:0c:37:84:3b:0f:
                    9c:f0:17:c8:f1:2c:68:0d:e5:42:25:7a:ce:47:a1:
                    ce:e9:1d:f8:1f:bd:dc:4c:02:4b:3a:53:5d:f7:44:
                    ca:5f:be:de:2a:75:96:3b:6b:2c:b9:94:91:79:b3:
                    d8:c2:57:5e:86:15:bc:88:ca:c9:43:3c:40:10:4a:
                    67:e2:95:d9:f5:94:99:f7:43:fe:e9:3a:dc:68:22:
                    23:3b:b9:db:c2:c5:df:7b:aa:0a:6d:a3:8b:35:1f:
                    b9:15:6b:75:20:a9:a0:fa:ba:80:cd:91:e9:f9:6f:
                    d4:79:e7:4a:ac:da:a6:93:19:23:d7:c2:42:55:b9:
                    2f:41:c6:d0:f1:98:60:b8:00:11:36:6a:33:a0:ee:
                    cb:a8:1c:71:5e:cd:e8:5f:49:44:70:ac:24:69:9f:
                    b8:b6:0f:d8:26:86:d9:70:e3:00:03:f0:5c:f6:d9:
                    59:66:2b:77:bc:31:8a:72:d9:56:a6:a2:f5:52:06:
                    1d:1e:64:85:7d:2d:5f:a1:4c:e2:82:b2:17:08:e9:
                    2d:7d:43:ef:07:83:e1:34:9c:84:9d:ea:23:e7:39:
                    e5:44:ba:35:e3:83:06:a3:25:83:ba:4a:7c:73:01:
                    39:c1:1f:be:3f:ea:6d:cd:6d:8a:21:6c:3d:7d:ec:
                    8d:cc:d8:28:74:e4:86:77:e1:3b:a0:18:02:7d:fa:
                    48:75:c3:28:11:e4:aa:0a:4b:d9:dc:f1:3c:81:88:
                    71:29:ec:09:e3:38:e3:a9:5f:a8:96:e0:0e:a8:1c:
                    0b:99:c1:d4:4e:22:03:1a:73:1a:74:2c:fd:55:f3:
                    8e:1b:b9:2e:9c:02:f2:83:b0:d6:59:39:b3:fb:c9:
                    a8:ab:3a:d0:91:f1:fa:75:e9:38:10:7d:23:61:36:
                    a7:70:6f:f8:ab:bf:c7:50:6c:85:a6:88:f9:8a:00:
                    a7:2e:00:ff:de:7b:fe:63:d8:4a:4e:26:fa:0b:b7:
                    40:42:a5:40:f5:f3:d7:5d:5a:1b:1c:14:07:c6:91:
                    09:cb:2e:10:7a:de:dc:73:18:f3:b1:90:df:3d:a1:
                    74:61:f7:62:18:dd:c5:e4:1e:15:5a:a1:db:1c:1c:
                    2c:10:d4:db:7e:44:b8:0d:21:77:ec:a0:7d:91:d0:
                    b5:fa:2d:52:e3:9c:88:27:2f:77:55:16:16:9a:9c:
                    82:f0:83:a8:6c:2a:16:88:fd:b0:73:c2:00:db:40:
                    be:8c:24:93:a2:74:79:6b:21:74:62:9e:8c:db:b1:
                    d5:f6:26:d3:1d:f0:da:4b:be:d7:b2:dc:b0:68:75:
                    df:30:b8:f7:bd:49:4f:ed:7e:b0:25:4d:3b:91:22:
                    88:00:9b
                Exponent: 65537 (0x10001)
        X509v3 extensions:
            X509v3 Basic Constraints: 
                CA:FALSE
            Netscape Comment: 
                OpenSSL Generated Certificate
            X509v3 Subject Key Identifier: 
                5C:C1:C7:08:6B:4D:02:43:56:C2:6E:B1:F7:99:E9:A2:F3:99:4D:D2
            X509v3 Authority Key Identifier: 
                keyid:84:4E:B8:C7:E3:8F:FE:B6:54:E7:21:19:11:11:4E:00:F6:A2:90:16

    Signature Algorithm: sha256WithRSAEncryption
         8b:79:99:f7:a4:be:0f:09:fc:6e:c7:3a:32:22:36:28:56:fc:
         62:78:2a:48:9d:7c:c4:37:9e:c7:56:e2:28:a4:b9:cd:4c:1f:
         36:72:f9:54:db:da:55:88:1f:19:4f:35:b7:ce:1a:6e:ab:df:
         a6:ca:1c:50:17:ca:27:5b:97:9d:d2:bd:c0:d0:6d:ac:be:d0:
         73:13:f3:cc:ec:66:bb:58:b3:30:67:d3:72:b6:89:2b:16:91:
         b8:dc:3f:62:e6:31:3c:bd:e7:e1:49:2e:b3:94:47:e1:b7:29:
         3f:e2:2e:8b:2a:e0:ec:09:db:c9:c7:3b:fe:e7:7c:12:5e:c6:
         1f:85:7f:63:b0:80:18:cb:f0:95:50:f1:41:04:9e:ef:dd:7e:
         eb:9b:a3:b9:7b:db:13:2d:1b:d3:1c:dd:99:fa:e6:9a:38:80:
         0f:21:d6:99:0c:5c:af:06:c8:6c:86:c9:ae:e8:f5:00:48:d9:
         72:c6:c7:95:40:0a:b7:f2:52:bb:a9:2f:b6:74:30:3f:a3:1b:
         eb:36:09:47:49:7b:bb:bc:3a:46:bb:15:b7:c1:19:8d:8a:dc:
         ed:26:e7:74:4c:36:59:a8:21:1e:e8:9a:6e:3c:b5:6f:b5:76:
         49:77:6b:43:6e:4c:70:18:58:60:be:5b:dd:99:b1:63:c4:c0:
         3a:32:49:05
-----BEGIN CERTIFICATE-----
MIIE6DCCA9CgAwIBAgIBADANBgkqhkiG9w0BAQsFADB+MQswCQYDVQQGEwJDTjEQ
MA4GA1UECAwHQmVpSmluZzEQMA4GA1UEBwwHSGFpRGluZzEPMA0GA1UECgwGWkdD
X0NBMRIwEAYDVQQLDAljYV9jZW50ZXIxCzAJBgNVBAMMAmNhMRkwFwYJKoZIhvcN
AQkBFgpjYUB6Z2MuY29tMB4XDTIyMDQxNzA3NDE0M1oXDTIzMDQxNzA3NDE0M1ow
dDELMAkGA1UEBhMCQ04xEDAOBgNVBAgMB0JlaUppbmcxDzANBgNVBAoMBlpHQ19D
QTESMBAGA1UECwwJY2Ffc2VydmVyMQ8wDQYDVQQDDAZzZXJ2ZXIxHTAbBgkqhkiG
9w0BCQEWDnNlcnZlckB6Z2MuY29tMIICIjANBgkqhkiG9w0BAQEFAAOCAg8AMIIC
CgKCAgEAutF4z2aa3h6yDDeEOw+c8BfI8SxoDeVCJXrOR6HO6R34H73cTAJLOlNd
90TKX77eKnWWO2ssuZSRebPYwldehhW8iMrJQzxAEEpn4pXZ9ZSZ90P+6TrcaCIj
O7nbwsXfe6oKbaOLNR+5FWt1IKmg+rqAzZHp+W/UeedKrNqmkxkj18JCVbkvQcbQ
8ZhguAARNmozoO7LqBxxXs3oX0lEcKwkaZ+4tg/YJobZcOMAA/Bc9tlZZit3vDGK
ctlWpqL1UgYdHmSFfS1foUzigrIXCOktfUPvB4PhNJyEneoj5znlRLo144MGoyWD
ukp8cwE5wR++P+ptzW2KIWw9feyNzNgodOSGd+E7oBgCffpIdcMoEeSqCkvZ3PE8
gYhxKewJ4zjjqV+oluAOqBwLmcHUTiIDGnMadCz9VfOOG7kunALyg7DWWTmz+8mo
qzrQkfH6dek4EH0jYTancG/4q7/HUGyFpoj5igCnLgD/3nv+Y9hKTib6C7dAQqVA
9fPXXVobHBQHxpEJyy4Qet7ccxjzsZDfPaF0YfdiGN3F5B4VWqHbHBwsENTbfkS4
DSF37KB9kdC1+i1S45yIJy93VRYWmpyC8IOobCoWiP2wc8IA20C+jCSTonR5ayF0
Yp6M27HV9ibTHfDaS77XstywaHXfMLj3vUlP7X6wJU07kSKIAJsCAwEAAaN7MHkw
CQYDVR0TBAIwADAsBglghkgBhvhCAQ0EHxYdT3BlblNTTCBHZW5lcmF0ZWQgQ2Vy
dGlmaWNhdGUwHQYDVR0OBBYEFFzBxwhrTQJDVsJusfeZ6aLzmU3SMB8GA1UdIwQY
MBaAFIROuMfjj/62VOchGRERTgD2opAWMA0GCSqGSIb3DQEBCwUAA4IBAQCLeZn3
pL4PCfxuxzoyIjYoVvxieCpInXzEN57HVuIopLnNTB82cvlU29pViB8ZTzW3zhpu
q9+myhxQF8onW5ed0r3A0G2svtBzE/PM7Ga7WLMwZ9NytokrFpG43D9i5jE8vefh
SS6zlEfhtyk/4i6LKuDsCdvJxzv+53wSXsYfhX9jsIAYy/CVUPFBBJ7v3X7rm6O5
e9sTLRvTHN2Z+uaaOIAPIdaZDFyvBshshsmu6PUASNlyxseVQAq38lK7qS+2dDA/
oxvrNglHSXu7vDpGuxW3wRmNitztJud0TDZZqCEe6JpuPLVvtXZJd2tDbkxwGFhg
vlvdmbFjxMA6MkkF
-----END CERTIFICATE-----
