Certificate:
    Data:
        Version: 3 (0x2)
        Serial Number: 1 (0x1)
        Signature Algorithm: sha256WithRSAEncryption
        Issuer: C=CN, ST=AnHui, L=BB, O=AHSTU, OU=NET, CN=ca/emailAddress=ca@ca.com
        Validity
            Not Before: May 17 15:12:02 2022 GMT
            Not After : May 17 15:12:02 2023 GMT
        Subject: C=CN, ST=AnHui, O=AHSTU, OU=NET, CN=server/emailAddress=server@ca.com
        Subject Public Key Info:
            Public Key Algorithm: rsaEncryption
                RSA Public-Key: (4096 bit)
                Modulus:
                    00:ce:34:7f:00:80:80:ca:85:fe:c5:5c:46:cc:45:
                    b6:c3:2e:33:16:fd:1d:bd:74:55:23:81:0d:74:fe:
                    61:39:0f:21:9a:26:b4:4d:72:be:72:88:cc:c5:5e:
                    2c:88:8e:c0:64:a5:48:9b:00:52:5c:46:5f:d8:0c:
                    7e:b9:cd:51:47:ca:d9:b7:c9:21:0f:10:3b:47:c6:
                    5a:39:07:8b:8c:54:87:89:80:8a:78:d4:ad:19:41:
                    1e:3b:16:db:65:3a:b8:75:ee:38:83:28:ea:47:4e:
                    85:4f:da:20:49:04:09:63:ba:8c:69:2e:1f:f0:f8:
                    cf:81:91:77:f8:32:00:c3:98:77:64:57:2d:cd:cb:
                    85:6b:24:8f:64:d2:ce:ca:0f:dc:33:ae:8b:3c:c6:
                    c9:a4:f6:a2:e6:86:da:45:f5:d2:15:6b:92:2e:69:
                    ef:67:ae:de:fe:d4:b3:e5:9b:8a:6d:52:ae:10:63:
                    cf:f8:b0:df:73:11:d9:66:0d:85:ec:8e:0e:94:f4:
                    d2:e6:cd:60:e4:c8:a3:d8:10:80:b2:25:70:ec:02:
                    3c:eb:3f:c5:b0:34:a5:a6:c3:de:bc:15:d2:92:e8:
                    38:5c:6c:91:07:89:b4:9a:af:26:d5:6c:84:a9:47:
                    92:0c:93:27:1e:df:17:a3:16:65:48:16:ce:4c:4e:
                    9e:1b:6e:a2:11:7f:55:26:c6:b0:ce:1f:95:25:4a:
                    32:73:a0:f5:7e:86:af:28:f9:9d:61:8b:cd:f2:39:
                    64:bd:1e:11:a6:16:55:65:17:00:d1:76:0a:5c:63:
                    c6:89:4c:a4:0f:83:8a:40:69:c8:85:22:d5:f2:fe:
                    8d:e9:a7:44:2d:d6:fb:0b:ac:ee:f1:05:37:5e:99:
                    23:cb:9e:c5:70:2d:99:b5:05:0d:8d:21:c8:e2:49:
                    92:fe:da:c1:0a:64:e1:1e:eb:c3:05:7e:0d:fc:96:
                    fa:65:79:a5:ba:f0:5d:da:4b:3c:a3:9b:c6:d5:06:
                    50:8a:84:d2:49:d7:e0:a6:81:10:c8:ea:2e:b9:c3:
                    2a:8b:79:78:ca:e8:0b:60:ce:aa:55:bd:52:cf:5f:
                    9c:03:75:fa:e6:ad:66:a9:5a:7a:1d:2c:f9:ca:2f:
                    1f:7e:65:6e:ef:5b:cd:d9:ca:74:a2:b9:ea:c7:61:
                    2e:50:5e:ad:15:4c:8e:78:b3:64:04:62:a1:1e:41:
                    69:7b:e5:0a:96:2f:94:cd:95:d1:aa:9a:9f:5e:38:
                    19:6c:d6:82:20:8b:b9:d7:5b:97:d0:95:d8:d8:d7:
                    c9:1b:a8:d5:82:2f:3b:c1:cc:00:ab:8c:bc:d4:d3:
                    46:1b:87:29:59:ea:95:3a:10:af:2b:25:43:ba:09:
                    f6:40:4d
                Exponent: 65537 (0x10001)
        X509v3 extensions:
            X509v3 Basic Constraints: 
                CA:FALSE
            Netscape Comment: 
                OpenSSL Generated Certificate
            X509v3 Subject Key Identifier: 
                75:27:54:5B:03:1F:07:80:AE:A6:26:21:A8:69:18:A8:E7:98:B5:98
            X509v3 Authority Key Identifier: 
                keyid:C3:03:D9:9F:37:78:B7:C5:1A:1F:3F:84:FE:C8:9A:30:F7:92:07:39

    Signature Algorithm: sha256WithRSAEncryption
         6d:3f:d7:32:59:1a:aa:9f:bb:82:13:b6:3e:c2:a6:02:42:90:
         d5:83:53:56:f8:03:24:7c:a5:3e:29:0e:64:d1:c8:21:5a:36:
         87:6f:08:29:f4:d3:27:fd:b0:52:29:dc:b5:ba:c9:2a:b6:b2:
         41:7e:7f:b3:dd:f9:f1:4c:30:58:f8:19:fa:38:b0:d7:1e:be:
         a7:57:f6:2d:8a:d2:6d:03:35:e9:9c:87:28:ef:d0:61:91:8d:
         b0:44:23:f5:9b:9b:14:fd:44:9f:d8:3d:5a:46:db:e3:8b:aa:
         66:2f:52:20:84:dc:5c:3a:dc:ba:35:45:de:19:54:4f:b5:44:
         17:df:cf:22:a2:22:29:8e:cd:0d:ef:40:14:5e:ef:aa:36:5b:
         be:32:38:7f:81:4e:e7:99:f1:df:1f:86:07:d3:e2:bf:51:fa:
         36:ab:3e:71:7d:6c:a1:68:32:42:60:fb:c6:59:d5:97:24:d7:
         fc:6b:4e:0b:41:1a:65:6f:a1:7b:7c:99:86:47:c2:89:85:38:
         fd:47:54:b2:7b:16:6b:3a:ae:60:1b:5e:06:a6:69:07:7f:70:
         f8:bc:d2:ac:5c:78:db:60:c2:01:12:7f:67:03:67:a5:40:33:
         c1:76:b8:85:8b:5b:f5:b2:77:3a:7b:9c:6a:52:96:43:90:df:
         21:26:e6:c8
-----BEGIN CERTIFICATE-----
MIIEzzCCA7egAwIBAgIBATANBgkqhkiG9w0BAQsFADBvMQswCQYDVQQGEwJDTjEO
MAwGA1UECAwFQW5IdWkxCzAJBgNVBAcMAkJCMQ4wDAYDVQQKDAVBSFNUVTEMMAoG
A1UECwwDTkVUMQswCQYDVQQDDAJjYTEYMBYGCSqGSIb3DQEJARYJY2FAY2EuY29t
MB4XDTIyMDUxNzE1MTIwMloXDTIzMDUxNzE1MTIwMlowajELMAkGA1UEBhMCQ04x
DjAMBgNVBAgMBUFuSHVpMQ4wDAYDVQQKDAVBSFNUVTEMMAoGA1UECwwDTkVUMQ8w
DQYDVQQDDAZzZXJ2ZXIxHDAaBgkqhkiG9w0BCQEWDXNlcnZlckBjYS5jb20wggIi
MA0GCSqGSIb3DQEBAQUAA4ICDwAwggIKAoICAQDONH8AgIDKhf7FXEbMRbbDLjMW
/R29dFUjgQ10/mE5DyGaJrRNcr5yiMzFXiyIjsBkpUibAFJcRl/YDH65zVFHytm3
ySEPEDtHxlo5B4uMVIeJgIp41K0ZQR47FttlOrh17jiDKOpHToVP2iBJBAljuoxp
Lh/w+M+BkXf4MgDDmHdkVy3Ny4VrJI9k0s7KD9wzros8xsmk9qLmhtpF9dIVa5Iu
ae9nrt7+1LPlm4ptUq4QY8/4sN9zEdlmDYXsjg6U9NLmzWDkyKPYEICyJXDsAjzr
P8WwNKWmw968FdKS6DhcbJEHibSarybVbISpR5IMkyce3xejFmVIFs5MTp4bbqIR
f1UmxrDOH5UlSjJzoPV+hq8o+Z1hi83yOWS9HhGmFlVlFwDRdgpcY8aJTKQPg4pA
aciFItXy/o3pp0Qt1vsLrO7xBTdemSPLnsVwLZm1BQ2NIcjiSZL+2sEKZOEe68MF
fg38lvpleaW68F3aSzyjm8bVBlCKhNJJ1+CmgRDI6i65wyqLeXjK6AtgzqpVvVLP
X5wDdfrmrWapWnodLPnKLx9+ZW7vW83ZynSiuerHYS5QXq0VTI54s2QEYqEeQWl7
5QqWL5TNldGqmp9eOBls1oIgi7nXW5fQldjY18kbqNWCLzvBzACrjLzU00YbhylZ
6pU6EK8rJUO6CfZATQIDAQABo3sweTAJBgNVHRMEAjAAMCwGCWCGSAGG+EIBDQQf
Fh1PcGVuU1NMIEdlbmVyYXRlZCBDZXJ0aWZpY2F0ZTAdBgNVHQ4EFgQUdSdUWwMf
B4CupiYhqGkYqOeYtZgwHwYDVR0jBBgwFoAUwwPZnzd4t8UaHz+E/siaMPeSBzkw
DQYJKoZIhvcNAQELBQADggEBAG0/1zJZGqqfu4ITtj7CpgJCkNWDU1b4AyR8pT4p
DmTRyCFaNodvCCn00yf9sFIp3LW6ySq2skF+f7Pd+fFMMFj4Gfo4sNcevqdX9i2K
0m0DNemchyjv0GGRjbBEI/WbmxT9RJ/YPVpG2+OLqmYvUiCE3Fw63Lo1Rd4ZVE+1
RBffzyKiIimOzQ3vQBRe76o2W74yOH+BTueZ8d8fhgfT4r9R+jarPnF9bKFoMkJg
+8ZZ1Zck1/xrTgtBGmVvoXt8mYZHwomFOP1HVLJ7Fms6rmAbXgamaQd/cPi80qxc
eNtgwgESf2cDZ6VAM8F2uIWLW/Wydzp7nGpSlkOQ3yEm5sg=
-----END CERTIFICATE-----
